(lp0
(I0
(ccopy_reg
_reconstructor
p1
(cgenpy.rostime
Time
p2
c__builtin__
object
p3
Ntp4
Rp5
(lp6
I1526716409
aI437349081
abg1
(g2
g3
Ntp7
Rp8
(lp9
I1526716421
aI337338924
abtp10
tp11
a(I3
(g8
g1
(g2
g3
Ntp12
Rp13
(lp14
I1526716429
aI387366056
abtp15
tp16
a(I0
(g13
g1
(g2
g3
Ntp17
Rp18
(lp19
I1526716432
aI897315025
abtp20
tp21
a(I4
(g18
g1
(g2
g3
Ntp22
Rp23
(lp24
I1526716437
aI377348899
abtp25
tp26
a(I0
(g23
g1
(g2
g3
Ntp27
Rp28
(lp29
I1526716440
aI517496109
abtp30
tp31
a(I5
(g28
g1
(g2
g3
Ntp32
Rp33
(lp34
I1526716445
aI67495107
abtp35
tp36
a(I0
(g33
g1
(g2
g3
Ntp37
Rp38
(lp39
I1526716445
aI357273101
abtp40
tp41
a(I7
(g38
g1
(g2
g3
Ntp42
Rp43
(lp44
I1526716450
aI507271051
abtp45
tp46
a(I0
(g43
g1
(g2
g3
Ntp47
Rp48
(lp49
I1526716450
aI607297897
abtp50
tp51
a(I8
(g48
g1
(g2
g3
Ntp52
Rp53
(lp54
I1526716454
aI87305068
abtp55
tp56
a(I0
(g53
g1
(g2
g3
Ntp57
Rp58
(lp59
I1526716457
aI367315053
abtp60
tp61
a(I9
(g58
g1
(g2
g3
Ntp62
Rp63
(lp64
I1526716460
aI977314949
abtp65
tp66
a(I0
(g63
g1
(g2
g3
Ntp67
Rp68
(lp69
I1526716461
aI7359981
abtp70
tp71
a(I-1
(g68
g1
(g2
g3
Ntp72
Rp73
(lp74
I1526716473
aI937310934
abtp75
tp76
a.