(lp0
(I0
(ccopy_reg
_reconstructor
p1
(cgenpy.rostime
Time
p2
c__builtin__
object
p3
Ntp4
Rp5
(lp6
I1527169540
aI695887088
abg1
(g2
g3
Ntp7
Rp8
(lp9
I1527169551
aI695869922
abtp10
tp11
a(I3
(g8
g1
(g2
g3
Ntp12
Rp13
(lp14
I1527169557
aI296128988
abtp15
tp16
a(I0
(g13
g1
(g2
g3
Ntp17
Rp18
(lp19
I1527169557
aI315908908
abtp20
tp21
a(I-1
(g18
g1
(g2
g3
Ntp22
Rp23
(lp24
I1527169587
aI185885906
abtp25
tp26
a.