(lp0
(I0
(ccopy_reg
_reconstructor
p1
(cgenpy.rostime
Time
p2
c__builtin__
object
p3
Ntp4
Rp5
(lp6
I1526716327
aI457300901
abg1
(g2
g3
Ntp7
Rp8
(lp9
I1526716338
aI437313079
abtp10
tp11
a(I3
(g8
g1
(g2
g3
Ntp12
Rp13
(lp14
I1526716346
aI357223987
abtp15
tp16
a(I0
(g13
g1
(g2
g3
Ntp17
Rp18
(lp19
I1526716349
aI607239961
abtp20
tp21
a(I4
(g18
g1
(g2
g3
Ntp22
Rp23
(lp24
I1526716354
aI297385931
abtp25
tp26
a(I0
(g23
g1
(g2
g3
Ntp27
Rp28
(lp29
I1526716357
aI487386941
abtp30
tp31
a(I5
(g28
g1
(g2
g3
Ntp32
Rp33
(lp34
I1526716362
aI77651023
abtp35
tp36
a(I0
(g33
g1
(g2
g3
Ntp37
Rp38
(lp39
I1526716362
aI377310991
abtp40
tp41
a(I7
(g38
g1
(g2
g3
Ntp42
Rp43
(lp44
I1526716367
aI507307052
abtp45
tp46
a(I0
(g43
g1
(g2
g3
Ntp47
Rp48
(lp49
I1526716367
aI597259044
abtp50
tp51
a(I8
(g48
g1
(g2
g3
Ntp52
Rp53
(lp54
I1526716371
aI537307977
abtp55
tp56
a(I0
(g53
g1
(g2
g3
Ntp57
Rp58
(lp59
I1526716371
aI547508001
abtp60
tp61
a(I-1
(g58
g1
(g2
g3
Ntp62
Rp63
(lp64
I1526716393
aI57321071
abtp65
tp66
a.