(lp0
(I0
(ccopy_reg
_reconstructor
p1
(cgenpy.rostime
Time
p2
c__builtin__
object
p3
Ntp4
Rp5
(lp6
I1527169595
aI635900974
abg1
(g2
g3
Ntp7
Rp8
(lp9
I1527169606
aI945866107
abtp10
tp11
a(I3
(g8
g1
(g2
g3
Ntp12
Rp13
(lp14
I1527169612
aI295907974
abtp15
tp16
a(I0
(g13
g1
(g2
g3
Ntp17
Rp18
(lp19
I1527169612
aI315931081
abtp20
tp21
a(I-1
(g18
g1
(g2
g3
Ntp22
Rp23
(lp24
I1527169639
aI345891952
abtp25
tp26
a.