(lp0
(I0
(ccopy_reg
_reconstructor
p1
(cgenpy.rostime
Time
p2
c__builtin__
object
p3
Ntp4
Rp5
(lp6
I1526717543
aI617232084
abg1
(g2
g3
Ntp7
Rp8
(lp9
I1526717554
aI937345027
abtp10
tp11
a(I3
(g8
g1
(g2
g3
Ntp12
Rp13
(lp14
I1526717563
aI377334117
abtp15
tp16
a(I0
(g13
g1
(g2
g3
Ntp17
Rp18
(lp19
I1526717566
aI777328014
abtp20
tp21
a(I4
(g18
g1
(g2
g3
Ntp22
Rp23
(lp24
I1526717570
aI797300100
abtp25
tp26
a(I0
(g23
g1
(g2
g3
Ntp27
Rp28
(lp29
I1526717570
aI807287931
abtp30
tp31
a(I-1
(g28
g1
(g2
g3
Ntp32
Rp33
(lp34
I1526717583
aI267287015
abtp35
tp36
a.