(lp0
(I0
(ccopy_reg
_reconstructor
p1
(cgenpy.rostime
Time
p2
c__builtin__
object
p3
Ntp4
Rp5
(lp6
I1526716016
aI947212934
abg1
(g2
g3
Ntp7
Rp8
(lp9
I1526716027
aI657294988
abtp10
tp11
a(I3
(g8
g1
(g2
g3
Ntp12
Rp13
(lp14
I1526716035
aI497942924
abtp15
tp16
a(I0
(g13
g1
(g2
g3
Ntp17
Rp18
(lp19
I1526716038
aI717331886
abtp20
tp21
a(I4
(g18
g1
(g2
g3
Ntp22
Rp23
(lp24
I1526716043
aI997519016
abtp25
tp26
a(I0
(g23
g1
(g2
g3
Ntp27
Rp28
(lp29
I1526716044
aI67328929
abtp30
tp31
a(I-1
(g28
g1
(g2
g3
Ntp32
Rp33
(lp34
I1526716083
aI437264919
abtp35
tp36
a.